target datalayout = "e-m:e-p270:32:32-p271:32:32-p272:64:64-i64:64-i128:128-f80:128-n8:16:32:64-S128"
target triple = "x86_64-pc-linux-gnu"

%struct._proto_node = type { ptr, ptr, ptr, ptr, ptr, ptr, ptr }
%struct.field_info = type { ptr, i32, i32, i32, i32, i32, i32, ptr, ptr, ptr, i32, i32 }

; Function Attrs: inlinehint nounwind null_pointer_is_valid sspstrong uwtable
define internal void @proto_item_set_generated(ptr noundef %0) #6 {
  %2 = alloca ptr, align 8
  store ptr %0, ptr %2, align 8
  %3 = load ptr, ptr %2, align 8
  %4 = icmp ne ptr %3, null
  br i1 %4, label %5, label %24

5:                                                ; preds = %1
  br label %6

6:                                                ; preds = %5
  %7 = load ptr, ptr %2, align 8
  %8 = getelementptr inbounds nuw %struct._proto_node, ptr %7, i32 0, i32 5
  %9 = load ptr, ptr %8, align 8
  %10 = icmp ne ptr %9, null
  br i1 %10, label %11, label %22

11:                                               ; preds = %6
  %12 = load ptr, ptr %2, align 8
  %13 = getelementptr inbounds nuw %struct._proto_node, ptr %12, i32 0, i32 5
  %14 = load ptr, ptr %13, align 8
  %15 = getelementptr inbounds nuw %struct.field_info, ptr %14, i32 0, i32 6
  %16 = load i32, ptr %15, align 4
  %17 = or i32 %16, 2
  %18 = load ptr, ptr %2, align 8
  %19 = getelementptr inbounds nuw %struct._proto_node, ptr %18, i32 0, i32 5
  %20 = load ptr, ptr %19, align 8
  %21 = getelementptr inbounds nuw %struct.field_info, ptr %20, i32 0, i32 6
  store i32 %17, ptr %21, align 4
  br label %22

22:                                               ; preds = %11, %6
  br label %23

23:                                               ; preds = %22
  br label %24

24:                                               ; preds = %23, %1
  ret void
}

; Function Attrs: null_pointer_is_valid sspstrong uwtable
define internal void @qos_tcs_init_addtree(ptr noundef %0, ptr noundef %1, ptr noundef %2, i32 noundef %3, i32 noundef %4, i32 noundef %5, i32 noundef %6, i32 noundef %7) #0 {
  %9 = alloca ptr, align 8
  %10 = alloca ptr, align 8
  %11 = alloca ptr, align 8
  %12 = alloca i32, align 4
  %13 = alloca i32, align 4
  %14 = alloca i32, align 4
  %15 = alloca i32, align 4
  %16 = alloca i32, align 4
  %17 = alloca i16, align 2
  %18 = alloca ptr, align 8
  %19 = alloca i32, align 4
  store ptr %0, ptr %9, align 8
  store ptr %1, ptr %10, align 8
  store ptr %2, ptr %11, align 8
  store i32 %3, ptr %12, align 4
  store i32 %4, ptr %13, align 4
  store i32 %5, ptr %14, align 4
  store i32 %6, ptr %15, align 4
  store i32 %7, ptr %16, align 4
  call void @llvm.lifetime.start.p0(i64 2, ptr %17) #7
  call void @llvm.lifetime.start.p0(i64 8, ptr %18) #7
  call void @llvm.lifetime.start.p0(i64 4, ptr %19) #7
  %20 = load ptr, ptr %10, align 8
  %21 = load i32, ptr %13, align 4
  %22 = load ptr, ptr %9, align 8
  %23 = load ptr, ptr %11, align 8
  %24 = load i32, ptr %23, align 4
  %25 = load i32, ptr %12, align 4
  %26 = call ptr @proto_tree_add_item(ptr noundef %20, i32 noundef %21, ptr noundef %22, i32 noundef %24, i32 noundef 2, i32 noundef %25)
  %27 = load ptr, ptr %9, align 8
  %28 = load ptr, ptr %11, align 8
  %29 = load i32, ptr %28, align 4
  %30 = load i32, ptr %12, align 4
  %31 = call zeroext i16 @tvb_get_uint16(ptr noundef %27, i32 noundef %29, i32 noundef %30)
  store i16 %31, ptr %17, align 2
  %32 = load i16, ptr %17, align 2
  %33 = zext i16 %32 to i32
  %34 = load i32, ptr %15, align 4
  %35 = icmp slt i32 %33, %34
  br i1 %35, label %36, label %74

36:                                               ; preds = %8
  %37 = load i16, ptr %17, align 2
  %38 = zext i16 %37 to i32
  store i32 %38, ptr %19, align 4
  br label %39

39:                                               ; preds = %52, %36
  %40 = load i32, ptr %19, align 4
  %41 = load i32, ptr %15, align 4
  %42 = icmp sle i32 %40, %41
  br i1 %42, label %43, label %55

43:                                               ; preds = %39
  %44 = load ptr, ptr %9, align 8
  %45 = load i32, ptr %16, align 4
  %46 = load i32, ptr %19, align 4
  %47 = add i32 %45, %46
  %48 = call zeroext i8 @tvb_get_uint8(ptr noundef %44, i32 noundef %47)
  %49 = zext i8 %48 to i32
  %50 = icmp eq i32 %49, 0
  br i1 %50, label %51, label %52

51:                                               ; preds = %43
  br label %55

52:                                               ; preds = %43
  %53 = load i32, ptr %19, align 4
  %54 = add i32 %53, 1
  store i32 %54, ptr %19, align 4
  br label %39, !llvm.loop !11

55:                                               ; preds = %51, %39
  %56 = load i32, ptr %19, align 4
  %57 = load i32, ptr %15, align 4
  %58 = icmp sle i32 %56, %57
  br i1 %58, label %59, label %73

59:                                               ; preds = %55
  %60 = load ptr, ptr %10, align 8
  %61 = load i32, ptr %14, align 4
  %62 = load ptr, ptr %9, align 8
  %63 = load i32, ptr %16, align 4
  %64 = load i16, ptr %17, align 2
  %65 = zext i16 %64 to i32
  %66 = add i32 %63, %65
  %67 = load i32, ptr %19, align 4
  %68 = load i16, ptr %17, align 2
  %69 = zext i16 %68 to i32
  %70 = sub i32 %67, %69
  %71 = call ptr @proto_tree_add_item(ptr noundef %60, i32 noundef %61, ptr noundef %62, i32 noundef %66, i32 noundef %70, i32 noundef 0)
  store ptr %71, ptr %18, align 8
  %72 = load ptr, ptr %18, align 8
  call void @proto_item_set_generated(ptr noundef %72)
  br label %73

73:                                               ; preds = %59, %55
  br label %74

74:                                               ; preds = %73, %8
  %75 = load ptr, ptr %11, align 8
  %76 = load i32, ptr %75, align 4
  %77 = add i32 %76, 2
  store i32 %77, ptr %75, align 4
  call void @llvm.lifetime.end.p0(i64 4, ptr %19) #7
  call void @llvm.lifetime.end.p0(i64 8, ptr %18) #7
  call void @llvm.lifetime.end.p0(i64 2, ptr %17) #7
  ret void
}