; Function Attrs: null_pointer_is_valid sspstrong uwtable
define internal fastcc void @qos_tcs_init_addtree(ptr noundef %0, ptr noundef %1, ptr noundef captures(none) %2, i32 noundef range(i32 -2147483648, 1) %3, i32 noundef %4, i32 noundef %5, i32 noundef range(i32 0, 2147483640) %6, i32 noundef %7) unnamed_addr #0 {
  %9 = load i32, ptr %2, align 4
  %10 = tail call ptr @proto_tree_add_item(ptr noundef %1, i32 noundef %4, ptr noundef %0, i32 noundef %9, i32 noundef 2, i32 noundef %3)
  %11 = load i32, ptr %2, align 4
  %12 = tail call zeroext i16 @tvb_get_uint16(ptr noundef %0, i32 noundef %11, i32 noundef %3)
  %13 = zext i16 %12 to i32
  %14 = icmp samesign ugt i32 %6, %13
  br i1 %14, label %.preheader, label %.critedge

.preheader:                                       ; preds = %8, %18
  %.030 = phi i32 [ %19, %18 ], [ %13, %8 ]
  %15 = add i32 %.030, %7
  %16 = tail call zeroext i8 @tvb_get_uint8(ptr noundef %0, i32 noundef %15)
  %17 = icmp eq i8 %16, 0
  br i1 %17, label %20, label %18

18:                                               ; preds = %.preheader
  %19 = add nuw i32 %.030, 1
  %exitcond.not = icmp eq i32 %.030, %6
  br i1 %exitcond.not, label %.critedge, label %.preheader, !llvm.loop !11

20:                                               ; preds = %.preheader
  %21 = add i32 %7, %13
  %22 = sub nsw i32 %.030, %13
  %23 = tail call ptr @proto_tree_add_item(ptr noundef %1, i32 noundef %5, ptr noundef %0, i32 noundef %21, i32 noundef %22, i32 noundef 0)
  %.not.i = icmp eq ptr %23, null
  br i1 %.not.i, label %.critedge, label %24

24:                                               ; preds = %20
  %25 = getelementptr inbounds nuw i8, ptr %23, i64 40
  %26 = load ptr, ptr %25, align 8
  %.not5.i = icmp eq ptr %26, null
  br i1 %.not5.i, label %.critedge, label %27

27:                                               ; preds = %24
  %28 = getelementptr inbounds nuw i8, ptr %26, i64 28
  %29 = load i32, ptr %28, align 4
  %30 = or i32 %29, 2
  store i32 %30, ptr %28, align 4
  br label %.critedge

.critedge:                                        ; preds = %18, %27, %24, %20, %8
  %31 = load i32, ptr %2, align 4
  %32 = add i32 %31, 2
  store i32 %32, ptr %2, align 4
  ret void
}